target datalayout = "e-m:e-p270:32:32-p271:32:32-p272:64:64-i64:64-i128:128-f80:128-n8:16:32:64-S128"
target triple = "x86_64-pc-linux-gnu"

%struct.RSA_PKEY_CTX = type { i32, ptr, i32, [2 x i32], i32, ptr, ptr, i32, i32, ptr, ptr, i64, i32 }
%struct.evp_pkey_ctx_st = type { i32, ptr, ptr, ptr, ptr, %union.anon, %struct.anon.4, ptr, ptr, ptr, i32, i32, ptr, ptr, ptr, ptr, ptr, i8, ptr }
%union.anon = type { %struct.anon.0 }
%struct.anon.0 = type { ptr, ptr }
%struct.anon.4 = type { ptr, ptr, i64, i8 }

@.str = private unnamed_addr constant [34 x i8] c"../openssl/crypto/rsa/rsa_pmeth.c\00", align 1
@__func__.pkey_rsa_verify = private unnamed_addr constant [16 x i8] c"pkey_rsa_verify\00", align 1

; Function Attrs: nounwind uwtable
define internal i32 @setup_tbuf(ptr noundef %0, ptr noundef %1) #0 {
  %3 = alloca i32, align 4
  %4 = alloca ptr, align 8
  %5 = alloca ptr, align 8
  store ptr %0, ptr %4, align 8, !tbaa !8
  store ptr %1, ptr %5, align 8, !tbaa !3
  %6 = load ptr, ptr %4, align 8, !tbaa !8
  %7 = getelementptr inbounds nuw %struct.RSA_PKEY_CTX, ptr %6, i32 0, i32 9
  %8 = load ptr, ptr %7, align 8, !tbaa !40
  %9 = icmp ne ptr %8, null
  br i1 %9, label %10, label %11

10:                                               ; preds = %2
  store i32 1, ptr %3, align 4
  br label %24

11:                                               ; preds = %2
  %12 = load ptr, ptr %5, align 8, !tbaa !3
  %13 = getelementptr inbounds nuw %struct.evp_pkey_ctx_st, ptr %12, i32 0, i32 14
  %14 = load ptr, ptr %13, align 8, !tbaa !52
  %15 = call ptr @EVP_PKEY_get0_RSA(ptr noundef %14)
  %16 = call i32 @RSA_size(ptr noundef %15)
  %17 = sext i32 %16 to i64
  %18 = call noalias ptr @CRYPTO_malloc(i64 noundef %17, ptr noundef @.str, i32 noundef 119)
  %19 = load ptr, ptr %4, align 8, !tbaa !8
  %20 = getelementptr inbounds nuw %struct.RSA_PKEY_CTX, ptr %19, i32 0, i32 9
  store ptr %18, ptr %20, align 8, !tbaa !40
  %21 = icmp eq ptr %18, null
  br i1 %21, label %22, label %23

22:                                               ; preds = %11
  store i32 0, ptr %3, align 4
  br label %24

23:                                               ; preds = %11
  store i32 1, ptr %3, align 4
  br label %24

24:                                               ; preds = %23, %22, %10
  %25 = load i32, ptr %3, align 4
  ret i32 %25
}

; Function Attrs: nounwind uwtable
define internal i32 @pkey_rsa_verify(ptr noundef %0, ptr noundef %1, i64 noundef %2, ptr noundef %3, i64 noundef %4) #0 {
  %6 = alloca i32, align 4
  %7 = alloca ptr, align 8
  %8 = alloca ptr, align 8
  %9 = alloca i64, align 8
  %10 = alloca ptr, align 8
  %11 = alloca i64, align 8
  %12 = alloca ptr, align 8
  %13 = alloca ptr, align 8
  %14 = alloca i64, align 8
  %15 = alloca i32, align 4
  %16 = alloca i32, align 4
  %17 = alloca i32, align 4
  store ptr %0, ptr %7, align 8, !tbaa !3
  store ptr %1, ptr %8, align 8, !tbaa !48
  store i64 %2, ptr %9, align 8, !tbaa !51
  store ptr %3, ptr %10, align 8, !tbaa !48
  store i64 %4, ptr %11, align 8, !tbaa !51
  call void @llvm.lifetime.start.p0(i64 8, ptr %12) #8
  %18 = load ptr, ptr %7, align 8, !tbaa !3
  %19 = getelementptr inbounds nuw %struct.evp_pkey_ctx_st, ptr %18, i32 0, i32 16
  %20 = load ptr, ptr %19, align 8, !tbaa !32
  store ptr %20, ptr %12, align 8, !tbaa !8
  call void @llvm.lifetime.start.p0(i64 8, ptr %13) #8
  %21 = load ptr, ptr %7, align 8, !tbaa !3
  %22 = getelementptr inbounds nuw %struct.evp_pkey_ctx_st, ptr %21, i32 0, i32 14
  %23 = load ptr, ptr %22, align 8, !tbaa !52
  %24 = call ptr @EVP_PKEY_get0_RSA(ptr noundef %23)
  store ptr %24, ptr %13, align 8, !tbaa !42
  call void @llvm.lifetime.start.p0(i64 8, ptr %14) #8
  call void @llvm.lifetime.start.p0(i64 4, ptr %15) #8
  %25 = load ptr, ptr %12, align 8, !tbaa !8
  %26 = getelementptr inbounds nuw %struct.RSA_PKEY_CTX, ptr %25, i32 0, i32 5
  %27 = load ptr, ptr %26, align 8, !tbaa !36
  %28 = icmp ne ptr %27, null
  br i1 %28, label %29, label %120

29:                                               ; preds = %5
  %30 = load ptr, ptr %12, align 8, !tbaa !8
  %31 = getelementptr inbounds nuw %struct.RSA_PKEY_CTX, ptr %30, i32 0, i32 4
  %32 = load i32, ptr %31, align 4, !tbaa !28
  %33 = icmp eq i32 %32, 1
  br i1 %33, label %34, label %47

34:                                               ; preds = %29
  %35 = load ptr, ptr %12, align 8, !tbaa !8
  %36 = getelementptr inbounds nuw %struct.RSA_PKEY_CTX, ptr %35, i32 0, i32 5
  %37 = load ptr, ptr %36, align 8, !tbaa !36
  %38 = call i32 @EVP_MD_get_type(ptr noundef %37)
  %39 = load ptr, ptr %10, align 8, !tbaa !48
  %40 = load i64, ptr %11, align 8, !tbaa !51
  %41 = trunc i64 %40 to i32
  %42 = load ptr, ptr %8, align 8, !tbaa !48
  %43 = load i64, ptr %9, align 8, !tbaa !51
  %44 = trunc i64 %43 to i32
  %45 = load ptr, ptr %13, align 8, !tbaa !42
  %46 = call i32 @RSA_verify(i32 noundef %38, ptr noundef %39, i32 noundef %41, ptr noundef %42, i32 noundef %44, ptr noundef %45)
  store i32 %46, ptr %6, align 4
  store i32 1, ptr %16, align 4
  br label %157

47:                                               ; preds = %29
  %48 = load ptr, ptr %12, align 8, !tbaa !8
  %49 = getelementptr inbounds nuw %struct.RSA_PKEY_CTX, ptr %48, i32 0, i32 5
  %50 = load ptr, ptr %49, align 8, !tbaa !36
  %51 = call i32 @EVP_MD_get_size(ptr noundef %50)
  store i32 %51, ptr %15, align 4, !tbaa !47
  %52 = load i32, ptr %15, align 4, !tbaa !47
  %53 = icmp sle i32 %52, 0
  br i1 %53, label %54, label %55

54:                                               ; preds = %47
  call void @ERR_new()
  call void @ERR_set_debug(ptr noundef @.str, i32 noundef 284, ptr noundef @__func__.pkey_rsa_verify)
  call void (i32, i32, ptr, ...) @ERR_set_error(i32 noundef 4, i32 noundef 143, ptr noundef null)
  store i32 -1, ptr %6, align 4
  store i32 1, ptr %16, align 4
  br label %157

55:                                               ; preds = %47
  %56 = load i64, ptr %11, align 8, !tbaa !51
  %57 = load i32, ptr %15, align 4, !tbaa !47
  %58 = sext i32 %57 to i64
  %59 = icmp ne i64 %56, %58
  br i1 %59, label %60, label %61

60:                                               ; preds = %55
  call void @ERR_new()
  call void @ERR_set_debug(ptr noundef @.str, i32 noundef 288, ptr noundef @__func__.pkey_rsa_verify)
  call void (i32, i32, ptr, ...) @ERR_set_error(i32 noundef 4, i32 noundef 143, ptr noundef null)
  store i32 -1, ptr %6, align 4
  store i32 1, ptr %16, align 4
  br label %157

61:                                               ; preds = %55
  %62 = load ptr, ptr %12, align 8, !tbaa !8
  %63 = getelementptr inbounds nuw %struct.RSA_PKEY_CTX, ptr %62, i32 0, i32 4
  %64 = load i32, ptr %63, align 4, !tbaa !28
  %65 = icmp eq i32 %64, 5
  br i1 %65, label %66, label %74

66:                                               ; preds = %61
  %67 = load ptr, ptr %7, align 8, !tbaa !3
  %68 = load ptr, ptr %8, align 8, !tbaa !48
  %69 = load i64, ptr %9, align 8, !tbaa !51
  %70 = call i32 @pkey_rsa_verifyrecover(ptr noundef %67, ptr noundef null, ptr noundef %14, ptr noundef %68, i64 noundef %69)
  %71 = icmp sle i32 %70, 0
  br i1 %71, label %72, label %73

72:                                               ; preds = %66
  store i32 0, ptr %6, align 4
  store i32 1, ptr %16, align 4
  br label %157

73:                                               ; preds = %66
  br label %119

74:                                               ; preds = %61
  %75 = load ptr, ptr %12, align 8, !tbaa !8
  %76 = getelementptr inbounds nuw %struct.RSA_PKEY_CTX, ptr %75, i32 0, i32 4
  %77 = load i32, ptr %76, align 4, !tbaa !28
  %78 = icmp eq i32 %77, 6
  br i1 %78, label %79, label %118

79:                                               ; preds = %74
  call void @llvm.lifetime.start.p0(i64 4, ptr %17) #8
  %80 = load ptr, ptr %12, align 8, !tbaa !8
  %81 = load ptr, ptr %7, align 8, !tbaa !3
  %82 = call i32 @setup_tbuf(ptr noundef %80, ptr noundef %81)
  %83 = icmp ne i32 %82, 0
  br i1 %83, label %85, label %84

84:                                               ; preds = %79
  store i32 -1, ptr %6, align 4
  store i32 1, ptr %16, align 4
  br label %117

85:                                               ; preds = %79
  %86 = load i64, ptr %9, align 8, !tbaa !51
  %87 = trunc i64 %86 to i32
  %88 = load ptr, ptr %8, align 8, !tbaa !48
  %89 = load ptr, ptr %12, align 8, !tbaa !8
  %90 = getelementptr inbounds nuw %struct.RSA_PKEY_CTX, ptr %89, i32 0, i32 9
  %91 = load ptr, ptr %90, align 8, !tbaa !40
  %92 = load ptr, ptr %13, align 8, !tbaa !42
  %93 = call i32 @RSA_public_decrypt(i32 noundef %87, ptr noundef %88, ptr noundef %91, ptr noundef %92, i32 noundef 3)
  store i32 %93, ptr %17, align 4, !tbaa !47
  %94 = load i32, ptr %17, align 4, !tbaa !47
  %95 = icmp sle i32 %94, 0
  br i1 %95, label %96, label %97

96:                                               ; preds = %85
  store i32 0, ptr %6, align 4
  store i32 1, ptr %16, align 4
  br label %117

97:                                               ; preds = %85
  %98 = load ptr, ptr %13, align 8, !tbaa !42
  %99 = load ptr, ptr %10, align 8, !tbaa !48
  %100 = load ptr, ptr %12, align 8, !tbaa !8
  %101 = getelementptr inbounds nuw %struct.RSA_PKEY_CTX, ptr %100, i32 0, i32 5
  %102 = load ptr, ptr %101, align 8, !tbaa !36
  %103 = load ptr, ptr %12, align 8, !tbaa !8
  %104 = getelementptr inbounds nuw %struct.RSA_PKEY_CTX, ptr %103, i32 0, i32 6
  %105 = load ptr, ptr %104, align 8, !tbaa !37
  %106 = load ptr, ptr %12, align 8, !tbaa !8
  %107 = getelementptr inbounds nuw %struct.RSA_PKEY_CTX, ptr %106, i32 0, i32 9
  %108 = load ptr, ptr %107, align 8, !tbaa !40
  %109 = load ptr, ptr %12, align 8, !tbaa !8
  %110 = getelementptr inbounds nuw %struct.RSA_PKEY_CTX, ptr %109, i32 0, i32 7
  %111 = load i32, ptr %110, align 8, !tbaa !29
  %112 = call i32 @RSA_verify_PKCS1_PSS_mgf1(ptr noundef %98, ptr noundef %99, ptr noundef %102, ptr noundef %105, ptr noundef %108, i32 noundef %111)
  store i32 %112, ptr %17, align 4, !tbaa !47
  %113 = load i32, ptr %17, align 4, !tbaa !47
  %114 = icmp sle i32 %113, 0
  br i1 %114, label %115, label %116

115:                                              ; preds = %97
  store i32 0, ptr %6, align 4
  store i32 1, ptr %16, align 4
  br label %117

116:                                              ; preds = %97
  store i32 1, ptr %6, align 4
  store i32 1, ptr %16, align 4
  br label %117

117:                                              ; preds = %116, %115, %96, %84
  call void @llvm.lifetime.end.p0(i64 4, ptr %17) #8
  br label %157

118:                                              ; preds = %74
  store i32 -1, ptr %6, align 4
  store i32 1, ptr %16, align 4
  br label %157

119:                                              ; preds = %73
  br label %143

120:                                              ; preds = %5
  %121 = load ptr, ptr %12, align 8, !tbaa !8
  %122 = load ptr, ptr %7, align 8, !tbaa !3
  %123 = call i32 @setup_tbuf(ptr noundef %121, ptr noundef %122)
  %124 = icmp ne i32 %123, 0
  br i1 %124, label %126, label %125

125:                                              ; preds = %120
  store i32 -1, ptr %6, align 4
  store i32 1, ptr %16, align 4
  br label %157

126:                                              ; preds = %120
  %127 = load i64, ptr %9, align 8, !tbaa !51
  %128 = trunc i64 %127 to i32
  %129 = load ptr, ptr %8, align 8, !tbaa !48
  %130 = load ptr, ptr %12, align 8, !tbaa !8
  %131 = getelementptr inbounds nuw %struct.RSA_PKEY_CTX, ptr %130, i32 0, i32 9
  %132 = load ptr, ptr %131, align 8, !tbaa !40
  %133 = load ptr, ptr %13, align 8, !tbaa !42
  %134 = load ptr, ptr %12, align 8, !tbaa !8
  %135 = getelementptr inbounds nuw %struct.RSA_PKEY_CTX, ptr %134, i32 0, i32 4
  %136 = load i32, ptr %135, align 4, !tbaa !28
  %137 = call i32 @RSA_public_decrypt(i32 noundef %128, ptr noundef %129, ptr noundef %132, ptr noundef %133, i32 noundef %136)
  %138 = sext i32 %137 to i64
  store i64 %138, ptr %14, align 8, !tbaa !51
  %139 = load i64, ptr %14, align 8, !tbaa !51
  %140 = icmp eq i64 %139, 0
  br i1 %140, label %141, label %142

141:                                              ; preds = %126
  store i32 0, ptr %6, align 4
  store i32 1, ptr %16, align 4
  br label %157

142:                                              ; preds = %126
  br label %143

143:                                              ; preds = %142, %119
  %144 = load i64, ptr %14, align 8, !tbaa !51
  %145 = load i64, ptr %11, align 8, !tbaa !51
  %146 = icmp ne i64 %144, %145
  br i1 %146, label %155, label %147

147:                                              ; preds = %143
  %148 = load ptr, ptr %10, align 8, !tbaa !48
  %149 = load ptr, ptr %12, align 8, !tbaa !8
  %150 = getelementptr inbounds nuw %struct.RSA_PKEY_CTX, ptr %149, i32 0, i32 9
  %151 = load ptr, ptr %150, align 8, !tbaa !40
  %152 = load i64, ptr %14, align 8, !tbaa !51
  %153 = call i32 @memcmp(ptr noundef %148, ptr noundef %151, i64 noundef %152) #9
  %154 = icmp ne i32 %153, 0
  br i1 %154, label %155, label %156

155:                                              ; preds = %147, %143
  store i32 0, ptr %6, align 4
  store i32 1, ptr %16, align 4
  br label %157

156:                                              ; preds = %147
  store i32 1, ptr %6, align 4
  store i32 1, ptr %16, align 4
  br label %157

157:                                              ; preds = %156, %155, %141, %125, %118, %117, %72, %60, %54, %34
  call void @llvm.lifetime.end.p0(i64 4, ptr %15) #8
  call void @llvm.lifetime.end.p0(i64 8, ptr %14) #8
  call void @llvm.lifetime.end.p0(i64 8, ptr %13) #8
  call void @llvm.lifetime.end.p0(i64 8, ptr %12) #8
  %158 = load i32, ptr %6, align 4
  ret i32 %158
}