; Function Attrs: nounwind uwtable
define internal i32 @pkey_rsa_verify(ptr noundef readonly captures(none) %0, ptr noundef %1, i64 noundef %2, ptr noundef %3, i64 noundef %4) #1 {
  %6 = alloca i64, align 8
  %7 = getelementptr inbounds nuw i8, ptr %0, i64 152
  %8 = load ptr, ptr %7, align 8, !tbaa !29
  %9 = getelementptr inbounds nuw i8, ptr %0, i64 136
  %10 = load ptr, ptr %9, align 8, !tbaa !51
  %11 = tail call ptr @EVP_PKEY_get0_RSA(ptr noundef %10) #9
  call void @llvm.lifetime.start.p0(i64 8, ptr nonnull %6) #9
  %12 = getelementptr inbounds nuw i8, ptr %8, i64 32
  %13 = load ptr, ptr %12, align 8, !tbaa !33
  %.not = icmp eq ptr %13, null
  br i1 %.not, label %56, label %14

14:                                               ; preds = %5
  %15 = getelementptr inbounds nuw i8, ptr %8, i64 28
  %16 = load i32, ptr %15, align 4, !tbaa !25
  %17 = icmp eq i32 %16, 1
  br i1 %17, label %18, label %23

18:                                               ; preds = %14
  %19 = tail call i32 @EVP_MD_get_type(ptr noundef nonnull %13) #9
  %20 = trunc i64 %4 to i32
  %21 = trunc i64 %2 to i32
  %22 = tail call i32 @RSA_verify(i32 noundef %19, ptr noundef %3, i32 noundef %20, ptr noundef %1, i32 noundef %21, ptr noundef %11) #9
  br label %76

23:                                               ; preds = %14
  %24 = tail call i32 @EVP_MD_get_size(ptr noundef nonnull %13) #9
  %25 = icmp slt i32 %24, 1
  br i1 %25, label %26, label %27

26:                                               ; preds = %23
  tail call void @ERR_new() #9
  tail call void @ERR_set_debug(ptr noundef nonnull @.str, i32 noundef 284, ptr noundef nonnull @__func__.pkey_rsa_verify) #9
  tail call void (i32, i32, ptr, ...) @ERR_set_error(i32 noundef 4, i32 noundef 143, ptr noundef null) #9
  br label %76

27:                                               ; preds = %23
  %28 = zext nneg i32 %24 to i64
  %.not48 = icmp eq i64 %4, %28
  br i1 %.not48, label %30, label %29

29:                                               ; preds = %27
  tail call void @ERR_new() #9
  tail call void @ERR_set_debug(ptr noundef nonnull @.str, i32 noundef 288, ptr noundef nonnull @__func__.pkey_rsa_verify) #9
  tail call void (i32, i32, ptr, ...) @ERR_set_error(i32 noundef 4, i32 noundef 143, ptr noundef null) #9
  br label %76

30:                                               ; preds = %27
  %31 = load i32, ptr %15, align 4, !tbaa !25
  switch i32 %31, label %76 [
    i32 5, label %32
    i32 6, label %35
  ]

32:                                               ; preds = %30
  %33 = call i32 @pkey_rsa_verifyrecover(ptr noundef nonnull %0, ptr noundef null, ptr noundef nonnull %6, ptr noundef %1, i64 noundef %2)
  %34 = icmp slt i32 %33, 1
  br i1 %34, label %76, label %._crit_edge

._crit_edge:                                      ; preds = %32
  %.pre = load i64, ptr %6, align 8, !tbaa !54
  br label %71

35:                                               ; preds = %30
  %36 = getelementptr inbounds nuw i8, ptr %8, i64 56
  %37 = load ptr, ptr %36, align 8, !tbaa !37
  %.not.i = icmp eq ptr %37, null
  br i1 %.not.i, label %setup_tbuf.exit, label %setup_tbuf.exit.thread

setup_tbuf.exit:                                  ; preds = %35
  %38 = load ptr, ptr %9, align 8, !tbaa !51
  %39 = tail call ptr @EVP_PKEY_get0_RSA(ptr noundef %38) #9
  %40 = tail call i32 @RSA_size(ptr noundef %39) #9
  %41 = sext i32 %40 to i64
  %42 = tail call noalias ptr @CRYPTO_malloc(i64 noundef %41, ptr noundef nonnull @.str, i32 noundef 119) #9
  store ptr %42, ptr %36, align 8, !tbaa !37
  %.not60 = icmp eq ptr %42, null
  br i1 %.not60, label %76, label %setup_tbuf.exit.thread

setup_tbuf.exit.thread:                           ; preds = %35, %setup_tbuf.exit
  %43 = phi ptr [ %37, %35 ], [ %42, %setup_tbuf.exit ]
  %44 = trunc i64 %2 to i32
  %45 = tail call i32 @RSA_public_decrypt(i32 noundef %44, ptr noundef %1, ptr noundef nonnull %43, ptr noundef %11, i32 noundef 3) #9
  %46 = icmp slt i32 %45, 1
  br i1 %46, label %76, label %47

47:                                               ; preds = %setup_tbuf.exit.thread
  %48 = load ptr, ptr %12, align 8, !tbaa !33
  %49 = getelementptr inbounds nuw i8, ptr %8, i64 40
  %50 = load ptr, ptr %49, align 8, !tbaa !34
  %51 = load ptr, ptr %36, align 8, !tbaa !37
  %52 = getelementptr inbounds nuw i8, ptr %8, i64 48
  %53 = load i32, ptr %52, align 8, !tbaa !26
  %54 = tail call i32 @RSA_verify_PKCS1_PSS_mgf1(ptr noundef %11, ptr noundef %3, ptr noundef %48, ptr noundef %50, ptr noundef %51, i32 noundef %53) #9
  %55 = icmp sgt i32 %54, 0
  %. = zext i1 %55 to i32
  br label %76

56:                                               ; preds = %5
  %57 = getelementptr inbounds nuw i8, ptr %8, i64 56
  %58 = load ptr, ptr %57, align 8, !tbaa !37
  %.not.i52 = icmp eq ptr %58, null
  br i1 %.not.i52, label %setup_tbuf.exit55, label %setup_tbuf.exit55.thread

setup_tbuf.exit55:                                ; preds = %56
  %59 = load ptr, ptr %9, align 8, !tbaa !51
  %60 = tail call ptr @EVP_PKEY_get0_RSA(ptr noundef %59) #9
  %61 = tail call i32 @RSA_size(ptr noundef %60) #9
  %62 = sext i32 %61 to i64
  %63 = tail call noalias ptr @CRYPTO_malloc(i64 noundef %62, ptr noundef nonnull @.str, i32 noundef 119) #9
  store ptr %63, ptr %57, align 8, !tbaa !37
  %.not61 = icmp eq ptr %63, null
  br i1 %.not61, label %76, label %setup_tbuf.exit55.thread

setup_tbuf.exit55.thread:                         ; preds = %56, %setup_tbuf.exit55
  %64 = phi ptr [ %58, %56 ], [ %63, %setup_tbuf.exit55 ]
  %65 = trunc i64 %2 to i32
  %66 = getelementptr inbounds nuw i8, ptr %8, i64 28
  %67 = load i32, ptr %66, align 4, !tbaa !25
  %68 = tail call i32 @RSA_public_decrypt(i32 noundef %65, ptr noundef %1, ptr noundef nonnull %64, ptr noundef %11, i32 noundef %67) #9
  %69 = sext i32 %68 to i64
  %70 = icmp eq i32 %68, 0
  br i1 %70, label %76, label %71

71:                                               ; preds = %._crit_edge, %setup_tbuf.exit55.thread
  %72 = phi i64 [ %.pre, %._crit_edge ], [ %69, %setup_tbuf.exit55.thread ]
  %.not50 = icmp eq i64 %72, %4
  br i1 %.not50, label %73, label %76

73:                                               ; preds = %71
  %74 = getelementptr inbounds nuw i8, ptr %8, i64 56
  %75 = load ptr, ptr %74, align 8, !tbaa !37
  %bcmp = tail call i32 @bcmp(ptr %3, ptr %75, i64 %4)
  %.not51 = icmp eq i32 %bcmp, 0
  %spec.select = zext i1 %.not51 to i32
  br label %76

76:                                               ; preds = %73, %71, %setup_tbuf.exit55.thread, %setup_tbuf.exit55, %30, %setup_tbuf.exit, %setup_tbuf.exit.thread, %47, %32, %29, %26, %18
  %.0 = phi i32 [ %22, %18 ], [ -1, %26 ], [ -1, %29 ], [ 0, %32 ], [ -1, %setup_tbuf.exit ], [ 0, %setup_tbuf.exit.thread ], [ %., %47 ], [ -1, %30 ], [ -1, %setup_tbuf.exit55 ], [ 0, %setup_tbuf.exit55.thread ], [ 0, %71 ], [ %spec.select, %73 ]
  call void @llvm.lifetime.end.p0(i64 8, ptr nonnull %6) #9
  ret i32 %.0
}